target datalayout = "e-m:e-p270:32:32-p271:32:32-p272:64:64-i64:64-i128:128-f80:128-n8:16:32:64-S128"
target triple = "x86_64-pc-linux-gnu"

%struct.SDL_GUID = type { [16 x i8] }
%struct.SDL_VirtualJoystickDesc = type { i32, i16, i16, i16, i16, i16, i16, i16, i16, i16, i16, [2 x i16], i32, i32, ptr, ptr, ptr, ptr, ptr, ptr, ptr, ptr, ptr, ptr, ptr, ptr }
%struct.joystick_hwdata = type { i32, i8, ptr, i32, %struct.SDL_GUID, %struct.SDL_VirtualJoystickDesc, i32, ptr, ptr, ptr, ptr, ptr, ptr, i8, i32, i32, ptr, ptr, ptr }
%struct.SDL_Joystick = type { i32, ptr, ptr, ptr, %struct.SDL_GUID, i16, i64, i8, i8, i32, ptr, i32, ptr, i32, ptr, i32, ptr, i32, ptr, i32, i32, ptr, i16, i16, i64, i64, i16, i16, i64, i64, i8, i8, i8, i64, i8, i32, i32, i32, i8, i32, ptr, i32, ptr, [3 x [3 x float]], i64, ptr, ptr, i32, i32, ptr }

@.str.16 = private unnamed_addr constant [17 x i8] c"Invalid joystick\00", align 1
@.str.19 = private unnamed_addr constant [21 x i8] c"Invalid button index\00", align 1

; Function Attrs: nounwind uwtable
define hidden zeroext i1 @SDL_SetJoystickVirtualButtonInner(ptr noundef %0, i32 noundef %1, i1 noundef zeroext %2) #0 {
  %4 = alloca i1, align 1
  %5 = alloca ptr, align 8
  %6 = alloca i32, align 4
  %7 = alloca i8, align 1
  %8 = alloca ptr, align 8
  %9 = alloca i32, align 4
  store ptr %0, ptr %5, align 8
  store i32 %1, ptr %6, align 4
  %10 = zext i1 %2 to i8
  store i8 %10, ptr %7, align 1
  call void @llvm.lifetime.start.p0(i64 8, ptr %8) #7
  call void @SDL_AssertJoysticksLocked()
  %11 = load ptr, ptr %5, align 8
  %12 = icmp ne ptr %11, null
  br i1 %12, label %13, label %18

13:                                               ; preds = %3
  %14 = load ptr, ptr %5, align 8
  %15 = getelementptr inbounds nuw %struct.SDL_Joystick, ptr %14, i32 0, i32 46
  %16 = load ptr, ptr %15, align 8
  %17 = icmp ne ptr %16, null
  br i1 %17, label %20, label %18

18:                                               ; preds = %13, %3
  %19 = call zeroext i1 (ptr, ...) @SDL_SetError_REAL(ptr noundef @.str.16)
  store i1 %19, ptr %4, align 1
  store i32 1, ptr %9, align 4
  br label %50

20:                                               ; preds = %13
  %21 = load ptr, ptr %5, align 8
  %22 = getelementptr inbounds nuw %struct.SDL_Joystick, ptr %21, i32 0, i32 46
  %23 = load ptr, ptr %22, align 8
  store ptr %23, ptr %8, align 8
  %24 = load i32, ptr %6, align 4
  %25 = icmp slt i32 %24, 0
  br i1 %25, label %34, label %26

26:                                               ; preds = %20
  %27 = load i32, ptr %6, align 4
  %28 = load ptr, ptr %8, align 8
  %29 = getelementptr inbounds nuw %struct.joystick_hwdata, ptr %28, i32 0, i32 5
  %30 = getelementptr inbounds nuw %struct.SDL_VirtualJoystickDesc, ptr %29, i32 0, i32 6
  %31 = load i16, ptr %30, align 2
  %32 = zext i16 %31 to i32
  %33 = icmp sge i32 %27, %32
  br i1 %33, label %34, label %36

34:                                               ; preds = %26, %20
  %35 = call zeroext i1 (ptr, ...) @SDL_SetError_REAL(ptr noundef @.str.19)
  store i1 %35, ptr %4, align 1
  store i32 1, ptr %9, align 4
  br label %50

36:                                               ; preds = %26
  %37 = load i8, ptr %7, align 1, !range !12, !noundef !13
  %38 = trunc i8 %37 to i1
  %39 = load ptr, ptr %8, align 8
  %40 = getelementptr inbounds nuw %struct.joystick_hwdata, ptr %39, i32 0, i32 8
  %41 = load ptr, ptr %40, align 8
  %42 = load i32, ptr %6, align 4
  %43 = sext i32 %42 to i64
  %44 = getelementptr inbounds i8, ptr %41, i64 %43
  %45 = zext i1 %38 to i8
  store i8 %45, ptr %44, align 1
  %46 = load ptr, ptr %8, align 8
  %47 = getelementptr inbounds nuw %struct.joystick_hwdata, ptr %46, i32 0, i32 6
  %48 = load i32, ptr %47, align 8
  %49 = or i32 %48, 4
  store i32 %49, ptr %47, align 8
  store i1 true, ptr %4, align 1
  store i32 1, ptr %9, align 4
  br label %50

50:                                               ; preds = %36, %34, %18
  call void @llvm.lifetime.end.p0(i64 8, ptr %8) #7
  %51 = load i1, ptr %4, align 1
  ret i1 %51
}