; Function Attrs: nounwind uwtable
define hidden zeroext i1 @SDL_SetJoystickVirtualButtonInner(ptr noundef readonly captures(address_is_null) %0, i32 noundef %1, i1 noundef zeroext %2) local_unnamed_addr #0 {
  %4 = zext i1 %2 to i8
  tail call void @SDL_AssertJoysticksLocked() #8
  %.not = icmp eq ptr %0, null
  br i1 %.not, label %8, label %5

5:                                                ; preds = %3
  %6 = getelementptr inbounds nuw i8, ptr %0, i64 328
  %7 = load ptr, ptr %6, align 8
  %.not13 = icmp eq ptr %7, null
  br i1 %.not13, label %8, label %10

8:                                                ; preds = %5, %3
  %9 = tail call zeroext i1 (ptr, ...) @SDL_SetError_REAL(ptr noundef nonnull @.str.16) #8
  br label %26

10:                                               ; preds = %5
  %11 = icmp slt i32 %1, 0
  br i1 %11, label %16, label %12

12:                                               ; preds = %10
  %13 = getelementptr inbounds nuw i8, ptr %7, i64 54
  %14 = load i16, ptr %13, align 2
  %15 = zext i16 %14 to i32
  %.not14 = icmp samesign ult i32 %1, %15
  br i1 %.not14, label %18, label %16

16:                                               ; preds = %12, %10
  %17 = tail call zeroext i1 (ptr, ...) @SDL_SetError_REAL(ptr noundef nonnull @.str.19) #8
  br label %26

18:                                               ; preds = %12
  %19 = getelementptr inbounds nuw i8, ptr %7, i64 192
  %20 = load ptr, ptr %19, align 8
  %21 = zext nneg i32 %1 to i64
  %22 = getelementptr inbounds nuw i8, ptr %20, i64 %21
  store i8 %4, ptr %22, align 1
  %23 = getelementptr inbounds nuw i8, ptr %7, i64 176
  %24 = load i32, ptr %23, align 8
  %25 = or i32 %24, 4
  store i32 %25, ptr %23, align 8
  br label %26

26:                                               ; preds = %18, %16, %8
  %.0 = phi i1 [ %17, %16 ], [ true, %18 ], [ %9, %8 ]
  ret i1 %.0
}